target datalayout = "e-m:e-p270:32:32-p271:32:32-p272:64:64-i64:64-i128:128-f80:128-n8:16:32:64-S128"
target triple = "x86_64-unknown-linux-gnu"

%struct.Token = type { i32, ptr, i64, x86_fp80, ptr, i32, ptr, ptr, ptr, ptr, i32, i32, i8, i8, ptr, ptr }
%struct.Type = type { i32, i32, i32, i8, i8, ptr, ptr, ptr, ptr, i32, ptr, ptr, ptr, i8, i8, ptr, ptr, i8, ptr }
%struct.Member = type { ptr, ptr, ptr, ptr, i32, i32, i32, i8, i32, i32 }

; Function Attrs: nounwind uwtable
define internal ptr @get_struct_member(ptr noundef %ty, ptr noundef %tok) #0 {
entry:
  %retval = alloca ptr, align 8
  %ty.addr = alloca ptr, align 8
  %tok.addr = alloca ptr, align 8
  %mem = alloca ptr, align 8
  store ptr %ty, ptr %ty.addr, align 8
  store ptr %tok, ptr %tok.addr, align 8
  %0 = load ptr, ptr %ty.addr, align 8
  %members = getelementptr inbounds %struct.Type, ptr %0, i32 0, i32 12
  %1 = load ptr, ptr %members, align 8
  store ptr %1, ptr %mem, align 8
  br label %for.cond

for.cond:                                         ; preds = %for.inc, %entry
  %2 = load ptr, ptr %mem, align 8
  %tobool = icmp ne ptr %2, null
  br i1 %tobool, label %for.body, label %for.end

for.body:                                         ; preds = %for.cond
  %3 = load ptr, ptr %mem, align 8
  %ty1 = getelementptr inbounds %struct.Member, ptr %3, i32 0, i32 1
  %4 = load ptr, ptr %ty1, align 8
  %kind = getelementptr inbounds %struct.Type, ptr %4, i32 0, i32 0
  %5 = load i32, ptr %kind, align 8
  %cmp = icmp eq i32 %5, 14
  br i1 %cmp, label %land.lhs.true, label %lor.lhs.false

lor.lhs.false:                                    ; preds = %for.body
  %6 = load ptr, ptr %mem, align 8
  %ty2 = getelementptr inbounds %struct.Member, ptr %6, i32 0, i32 1
  %7 = load ptr, ptr %ty2, align 8
  %kind3 = getelementptr inbounds %struct.Type, ptr %7, i32 0, i32 0
  %8 = load i32, ptr %kind3, align 8
  %cmp4 = icmp eq i32 %8, 15
  br i1 %cmp4, label %land.lhs.true, label %if.end9

land.lhs.true:                                    ; preds = %lor.lhs.false, %for.body
  %9 = load ptr, ptr %mem, align 8
  %name = getelementptr inbounds %struct.Member, ptr %9, i32 0, i32 3
  %10 = load ptr, ptr %name, align 8
  %tobool5 = icmp ne ptr %10, null
  br i1 %tobool5, label %if.end9, label %if.then

if.then:                                          ; preds = %land.lhs.true
  %11 = load ptr, ptr %mem, align 8
  %ty6 = getelementptr inbounds %struct.Member, ptr %11, i32 0, i32 1
  %12 = load ptr, ptr %ty6, align 8
  %13 = load ptr, ptr %tok.addr, align 8
  %call = call ptr @get_struct_member(ptr noundef %12, ptr noundef %13)
  %tobool7 = icmp ne ptr %call, null
  br i1 %tobool7, label %if.then8, label %if.end

if.then8:                                         ; preds = %if.then
  %14 = load ptr, ptr %mem, align 8
  store ptr %14, ptr %retval, align 8
  br label %return

if.end:                                           ; preds = %if.then
  br label %for.inc

if.end9:                                          ; preds = %land.lhs.true, %lor.lhs.false
  %15 = load ptr, ptr %mem, align 8
  %name10 = getelementptr inbounds %struct.Member, ptr %15, i32 0, i32 3
  %16 = load ptr, ptr %name10, align 8
  %len = getelementptr inbounds %struct.Token, ptr %16, i32 0, i32 5
  %17 = load i32, ptr %len, align 8
  %18 = load ptr, ptr %tok.addr, align 8
  %len11 = getelementptr inbounds %struct.Token, ptr %18, i32 0, i32 5
  %19 = load i32, ptr %len11, align 8
  %cmp12 = icmp eq i32 %17, %19
  br i1 %cmp12, label %land.lhs.true13, label %if.end20

land.lhs.true13:                                  ; preds = %if.end9
  %20 = load ptr, ptr %mem, align 8
  %name14 = getelementptr inbounds %struct.Member, ptr %20, i32 0, i32 3
  %21 = load ptr, ptr %name14, align 8
  %loc = getelementptr inbounds %struct.Token, ptr %21, i32 0, i32 4
  %22 = load ptr, ptr %loc, align 16
  %23 = load ptr, ptr %tok.addr, align 8
  %loc15 = getelementptr inbounds %struct.Token, ptr %23, i32 0, i32 4
  %24 = load ptr, ptr %loc15, align 16
  %25 = load ptr, ptr %tok.addr, align 8
  %len16 = getelementptr inbounds %struct.Token, ptr %25, i32 0, i32 5
  %26 = load i32, ptr %len16, align 8
  %conv = sext i32 %26 to i64
  %call17 = call i32 @strncmp(ptr noundef %22, ptr noundef %24, i64 noundef %conv) #10
  %tobool18 = icmp ne i32 %call17, 0
  br i1 %tobool18, label %if.end20, label %if.then19

if.then19:                                        ; preds = %land.lhs.true13
  %27 = load ptr, ptr %mem, align 8
  store ptr %27, ptr %retval, align 8
  br label %return

if.end20:                                         ; preds = %land.lhs.true13, %if.end9
  br label %for.inc

for.inc:                                          ; preds = %if.end20, %if.end
  %28 = load ptr, ptr %mem, align 8
  %next = getelementptr inbounds %struct.Member, ptr %28, i32 0, i32 0
  %29 = load ptr, ptr %next, align 8
  store ptr %29, ptr %mem, align 8
  br label %for.cond, !llvm.loop !46

for.end:                                          ; preds = %for.cond
  store ptr null, ptr %retval, align 8
  br label %return

return:                                           ; preds = %for.end, %if.then19, %if.then8
  %30 = load ptr, ptr %retval, align 8
  ret ptr %30
}