; Function Attrs: nofree nounwind memory(read, inaccessiblemem: none) uwtable
define internal fastcc ptr @get_struct_member(ptr nocapture noundef readonly %ty, ptr nocapture noundef readonly %tok) unnamed_addr #8 {
entry:
  %members = getelementptr inbounds %struct.Type, ptr %ty, i64 0, i32 12
  %mem.014 = load ptr, ptr %members, align 8
  %tobool.not15 = icmp eq ptr %mem.014, null
  br i1 %tobool.not15, label %return, label %for.body.lr.ph

for.body.lr.ph:                                   ; preds = %entry
  %len11 = getelementptr inbounds %struct.Token, ptr %tok, i64 0, i32 5
  %loc15 = getelementptr inbounds %struct.Token, ptr %tok, i64 0, i32 4
  br label %for.body

for.body:                                         ; preds = %for.body.lr.ph, %for.inc
  %mem.016 = phi ptr [ %mem.014, %for.body.lr.ph ], [ %mem.0, %for.inc ]
  %ty1 = getelementptr inbounds %struct.Member, ptr %mem.016, i64 0, i32 1
  %0 = load ptr, ptr %ty1, align 8
  %1 = load i32, ptr %0, align 8
  %2 = and i32 %1, -2
  %switch = icmp eq i32 %2, 14
  %name = getelementptr inbounds %struct.Member, ptr %mem.016, i64 0, i32 3
  %3 = load ptr, ptr %name, align 8
  %tobool5.not = icmp eq ptr %3, null
  %or.cond = select i1 %switch, i1 %tobool5.not, i1 false
  br i1 %or.cond, label %if.then, label %if.end9

if.then:                                          ; preds = %for.body
  %call = tail call fastcc ptr @get_struct_member(ptr noundef nonnull %0, ptr noundef %tok)
  %tobool7.not = icmp eq ptr %call, null
  br i1 %tobool7.not, label %for.inc, label %return

if.end9:                                          ; preds = %for.body
  %len = getelementptr inbounds %struct.Token, ptr %3, i64 0, i32 5
  %4 = load i32, ptr %len, align 8
  %5 = load i32, ptr %len11, align 8
  %cmp12 = icmp eq i32 %4, %5
  br i1 %cmp12, label %land.lhs.true13, label %for.inc

land.lhs.true13:                                  ; preds = %if.end9
  %loc = getelementptr inbounds %struct.Token, ptr %3, i64 0, i32 4
  %6 = load ptr, ptr %loc, align 16
  %7 = load ptr, ptr %loc15, align 16
  %conv = sext i32 %4 to i64
  %call17 = tail call i32 @strncmp(ptr noundef %6, ptr noundef %7, i64 noundef %conv) #15
  %tobool18.not = icmp eq i32 %call17, 0
  br i1 %tobool18.not, label %return, label %for.inc

for.inc:                                          ; preds = %if.end9, %land.lhs.true13, %if.then
  %mem.0 = load ptr, ptr %mem.016, align 8
  %tobool.not = icmp eq ptr %mem.0, null
  br i1 %tobool.not, label %return, label %for.body, !llvm.loop !50

return:                                           ; preds = %if.then, %land.lhs.true13, %for.inc, %entry
  %mem.0.lcssa = phi ptr [ null, %entry ], [ null, %for.inc ], [ %mem.016, %land.lhs.true13 ], [ %mem.016, %if.then ]
  ret ptr %mem.0.lcssa
}